target datalayout = "e-m:e-p270:32:32-p271:32:32-p272:64:64-i64:64-i128:128-f80:128-n8:16:32:64-S128"
target triple = "x86_64-pc-linux-gnu"

%"struct.gmx::IMDSocket" = type { %struct.sockaddr_in, i32 }
%struct.sockaddr_in = type { i16, i16, %struct.in_addr, [8 x i8] }
%struct.in_addr = type { i32 }

@.str.1 = private unnamed_addr constant [123 x i8] c"generated/home/dtcxzyw/WorkSpace/Projects/compilers/llvm-opt-benchmark/bench/gromacs/gromacs/src/gromacs/imd/imdsocket.cpp\00", align 1

; Function Attrs: mustprogress nounwind uwtable
define noundef i32 @_ZN3gmx15imd_sock_listenEPNS_9IMDSocketE(ptr noundef %0) #0 {
  %2 = alloca ptr, align 8
  %3 = alloca i32, align 4
  store ptr %0, ptr %2, align 8, !tbaa !4
  call void @llvm.lifetime.start.p0(i64 4, ptr %3) #10
  %4 = load ptr, ptr %2, align 8, !tbaa !4
  %5 = getelementptr inbounds nuw %"struct.gmx::IMDSocket", ptr %4, i32 0, i32 1
  %6 = load i32, ptr %5, align 4, !tbaa !9
  %7 = call i32 @listen(i32 noundef %6, i32 noundef 1) #10
  store i32 %7, ptr %3, align 4, !tbaa !15
  %8 = load i32, ptr %3, align 4, !tbaa !15
  %9 = icmp ne i32 %8, 0
  br i1 %9, label %10, label %14

10:                                               ; preds = %1
  %11 = call ptr @__errno_location() #11
  %12 = load i32, ptr %11, align 4, !tbaa !15
  %13 = call ptr @strerror(i32 noundef %12) #10
  call void @_ZN3gmxL15print_IMD_errorEPKciPc(ptr noundef @.str.1, i32 noundef 226, ptr noundef %13)
  br label %14

14:                                               ; preds = %10, %1
  %15 = load i32, ptr %3, align 4, !tbaa !15
  call void @llvm.lifetime.end.p0(i64 4, ptr %3) #10
  ret i32 %15
}