; Function Attrs: mustprogress nounwind uwtable
define noundef i32 @_ZN3gmx15imd_sock_listenEPNS_9IMDSocketE(ptr noundef readonly captures(none) %0) local_unnamed_addr #8 {
  %2 = getelementptr inbounds nuw i8, ptr %0, i64 16
  %3 = load i32, ptr %2, align 4, !tbaa !4
  %4 = tail call i32 @listen(i32 noundef %3, i32 noundef 1) #14
  %.not = icmp eq i32 %4, 0
  br i1 %.not, label %9, label %5

5:                                                ; preds = %1
  %6 = tail call ptr @__errno_location() #15
  %7 = load i32, ptr %6, align 4, !tbaa !12
  %8 = tail call ptr @strerror(i32 noundef %7) #14
  tail call fastcc void @_ZN3gmxL15print_IMD_errorEPKciPc(i32 noundef 226, ptr noundef %8)
  br label %9

9:                                                ; preds = %5, %1
  ret i32 %4
}